; Function Attrs: nounwind uwtable
define ptr @EVP_KEM_settable_ctx_params(ptr noundef readonly captures(address_is_null) %0) local_unnamed_addr #0 {
  %2 = icmp eq ptr %0, null
  br i1 %2, label %13, label %3

3:                                                ; preds = %1
  %4 = getelementptr inbounds nuw i8, ptr %0, i64 120
  %5 = load ptr, ptr %4, align 8, !tbaa !65
  %6 = icmp eq ptr %5, null
  br i1 %6, label %13, label %7

7:                                                ; preds = %3
  %8 = getelementptr inbounds nuw i8, ptr %0, i64 24
  %9 = load ptr, ptr %8, align 8, !tbaa !37
  %10 = tail call ptr @ossl_provider_ctx(ptr noundef %9) #5
  %11 = load ptr, ptr %4, align 8, !tbaa !65
  %12 = tail call ptr %11(ptr noundef null, ptr noundef %10) #5
  br label %13

13:                                               ; preds = %1, %3, %7
  %.0 = phi ptr [ %12, %7 ], [ null, %3 ], [ null, %1 ]
  ret ptr %.0
}